target datalayout = "e-m:e-p270:32:32-p271:32:32-p272:64:64-i64:64-i128:128-f80:128-n8:16:32:64-S128"
target triple = "x86_64-pc-linux-gnu"

%"class.icu_77::UnicodeSet" = type <{ %"class.icu_77::UnicodeFilter", ptr, i32, i32, i8, [7 x i8], ptr, ptr, i32, [4 x i8], ptr, i32, [4 x i8], ptr, ptr, [25 x i32], [4 x i8] }>
%"class.icu_77::UnicodeFilter" = type { %"class.icu_77::UnicodeFunctor", %"class.icu_77::UnicodeMatcher" }
%"class.icu_77::UnicodeFunctor" = type { %"class.icu_77::UObject" }
%"class.icu_77::UObject" = type { ptr }
%"class.icu_77::UnicodeMatcher" = type { ptr }

@_ZTVN6icu_777UObjectE = available_externally unnamed_addr constant { [5 x ptr] } { [5 x ptr] [ptr null, ptr @_ZTIN6icu_777UObjectE, ptr @_ZN6icu_777UObjectD1Ev, ptr @_ZN6icu_777UObjectD0Ev, ptr @_ZNK6icu_777UObject17getDynamicClassIDEv] }, align 8

; Function Attrs: inlinehint mustprogress nounwind uwtable
define linkonce_odr void @_ZN6icu_777UObjectC2Ev(ptr noundef nonnull align 8 dereferenceable(8) %0) unnamed_addr #2 comdat align 2 {
  %2 = alloca ptr, align 8
  store ptr %0, ptr %2, align 8, !tbaa !103
  %3 = load ptr, ptr %2, align 8
  store ptr getelementptr inbounds inrange(-16, 24) ({ [5 x ptr] }, ptr @_ZTVN6icu_777UObjectE, i32 0, i32 0, i32 2), ptr %3, align 8, !tbaa !29
  ret void
}

; Function Attrs: inlinehint mustprogress nounwind uwtable
define linkonce_odr void @_ZN6icu_7714UnicodeMatcherC2Ev(ptr noundef nonnull align 8 dereferenceable(8) %0) unnamed_addr #2 comdat align 2 {
  %2 = alloca ptr, align 8
  store ptr %0, ptr %2, align 8, !tbaa !101
  %3 = load ptr, ptr %2, align 8
  store ptr getelementptr inbounds inrange(-16, 48) ({ [8 x ptr] }, ptr @_ZTVN6icu_7714UnicodeMatcherE, i32 0, i32 0, i32 2), ptr %3, align 8, !tbaa !29
  ret void
}

; Function Attrs: inlinehint mustprogress nounwind uwtable
define linkonce_odr void @_ZN6icu_7714UnicodeFunctorC2Ev(ptr noundef nonnull align 8 dereferenceable(8) %0) unnamed_addr #2 comdat align 2 {
  %2 = alloca ptr, align 8
  store ptr %0, ptr %2, align 8, !tbaa !99
  %3 = load ptr, ptr %2, align 8
  call void @_ZN6icu_777UObjectC2Ev(ptr noundef nonnull align 8 dereferenceable(8) %3) #13
  store ptr getelementptr inbounds inrange(-16, 56) ({ [9 x ptr] }, ptr @_ZTVN6icu_7714UnicodeFunctorE, i32 0, i32 0, i32 2), ptr %3, align 8, !tbaa !29
  ret void
}

; Function Attrs: inlinehint mustprogress nounwind uwtable
define linkonce_odr void @_ZN6icu_7713UnicodeFilterC2Ev(ptr noundef nonnull align 8 dereferenceable(16) %0) unnamed_addr #2 comdat align 2 {
  %2 = alloca ptr, align 8
  store ptr %0, ptr %2, align 8, !tbaa !51
  %3 = load ptr, ptr %2, align 8
  call void @_ZN6icu_7714UnicodeFunctorC2Ev(ptr noundef nonnull align 8 dereferenceable(8) %3) #13
  %4 = getelementptr inbounds i8, ptr %3, i64 8
  call void @_ZN6icu_7714UnicodeMatcherC2Ev(ptr noundef nonnull align 8 dereferenceable(8) %4) #13
  store ptr getelementptr inbounds inrange(-16, 72) ({ [11 x ptr], [8 x ptr] }, ptr @_ZTVN6icu_7713UnicodeFilterE, i32 0, i32 0, i32 2), ptr %3, align 8, !tbaa !29
  %5 = getelementptr inbounds i8, ptr %3, i64 8
  store ptr getelementptr inbounds inrange(-16, 48) ({ [11 x ptr], [8 x ptr] }, ptr @_ZTVN6icu_7713UnicodeFilterE, i32 0, i32 1, i32 2), ptr %5, align 8, !tbaa !29
  ret void
}

; Function Attrs: mustprogress uwtable
define void @_ZN6icu_7710UnicodeSetC2ERKNS_13UnicodeStringEjPKNS_11SymbolTableER10UErrorCode(ptr noundef nonnull align 8 dereferenceable(200) %0, ptr noundef nonnull align 8 dereferenceable(64) %1, i32 noundef %2, ptr noundef %3, ptr noundef nonnull align 4 dereferenceable(4) %4) unnamed_addr #1 align 2 personality ptr @__gxx_personality_v0 {
  %6 = alloca ptr, align 8
  %7 = alloca ptr, align 8
  %8 = alloca i32, align 4
  %9 = alloca ptr, align 8
  %10 = alloca ptr, align 8
  %11 = alloca ptr, align 8
  %12 = alloca i32, align 4
  store ptr %0, ptr %6, align 8, !tbaa !23
  store ptr %1, ptr %7, align 8, !tbaa !25
  store i32 %2, ptr %8, align 4, !tbaa !14
  store ptr %3, ptr %9, align 8, !tbaa !27
  store ptr %4, ptr %10, align 8, !tbaa !22
  %13 = load ptr, ptr %6, align 8
  call void @_ZN6icu_7713UnicodeFilterC2Ev(ptr noundef nonnull align 8 dereferenceable(16) %13) #13
  store ptr getelementptr inbounds inrange(-16, 264) ({ [35 x ptr], [8 x ptr] }, ptr @_ZTVN6icu_7710UnicodeSetE, i32 0, i32 0, i32 2), ptr %13, align 8, !tbaa !29
  %14 = getelementptr inbounds i8, ptr %13, i64 8
  store ptr getelementptr inbounds inrange(-16, 48) ({ [35 x ptr], [8 x ptr] }, ptr @_ZTVN6icu_7710UnicodeSetE, i32 0, i32 1, i32 2), ptr %14, align 8, !tbaa !29
  %15 = getelementptr inbounds nuw %"class.icu_77::UnicodeSet", ptr %13, i32 0, i32 1
  %16 = getelementptr inbounds nuw %"class.icu_77::UnicodeSet", ptr %13, i32 0, i32 15
  %17 = getelementptr inbounds [25 x i32], ptr %16, i64 0, i64 0
  store ptr %17, ptr %15, align 8, !tbaa !31
  %18 = getelementptr inbounds nuw %"class.icu_77::UnicodeSet", ptr %13, i32 0, i32 2
  store i32 25, ptr %18, align 8, !tbaa !41
  %19 = getelementptr inbounds nuw %"class.icu_77::UnicodeSet", ptr %13, i32 0, i32 3
  store i32 1, ptr %19, align 4, !tbaa !42
  %20 = getelementptr inbounds nuw %"class.icu_77::UnicodeSet", ptr %13, i32 0, i32 4
  store i8 0, ptr %20, align 8, !tbaa !43
  %21 = getelementptr inbounds nuw %"class.icu_77::UnicodeSet", ptr %13, i32 0, i32 6
  store ptr null, ptr %21, align 8, !tbaa !44
  %22 = getelementptr inbounds nuw %"class.icu_77::UnicodeSet", ptr %13, i32 0, i32 7
  store ptr null, ptr %22, align 8, !tbaa !45
  %23 = getelementptr inbounds nuw %"class.icu_77::UnicodeSet", ptr %13, i32 0, i32 8
  store i32 0, ptr %23, align 8, !tbaa !46
  %24 = getelementptr inbounds nuw %"class.icu_77::UnicodeSet", ptr %13, i32 0, i32 10
  store ptr null, ptr %24, align 8, !tbaa !47
  %25 = getelementptr inbounds nuw %"class.icu_77::UnicodeSet", ptr %13, i32 0, i32 11
  store i32 0, ptr %25, align 8, !tbaa !48
  %26 = getelementptr inbounds nuw %"class.icu_77::UnicodeSet", ptr %13, i32 0, i32 13
  store ptr null, ptr %26, align 8, !tbaa !49
  %27 = getelementptr inbounds nuw %"class.icu_77::UnicodeSet", ptr %13, i32 0, i32 14
  store ptr null, ptr %27, align 8, !tbaa !50
  %28 = load ptr, ptr %7, align 8, !tbaa !25
  %29 = load i32, ptr %8, align 4, !tbaa !14
  %30 = load ptr, ptr %9, align 8, !tbaa !27
  %31 = load ptr, ptr %10, align 8, !tbaa !22
  %32 = invoke noundef nonnull align 8 dereferenceable(200) ptr @_ZN6icu_7710UnicodeSet12applyPatternERKNS_13UnicodeStringEjPKNS_11SymbolTableER10UErrorCode(ptr noundef nonnull align 8 dereferenceable(200) %13, ptr noundef nonnull align 8 dereferenceable(64) %28, i32 noundef %29, ptr noundef %30, ptr noundef nonnull align 4 dereferenceable(4) %31)
          to label %33 unwind label %34

33:                                               ; preds = %5
  ret void

34:                                               ; preds = %5
  %35 = landingpad { ptr, i32 }
          cleanup
  %36 = extractvalue { ptr, i32 } %35, 0
  store ptr %36, ptr %11, align 8
  %37 = extractvalue { ptr, i32 } %35, 1
  store i32 %37, ptr %12, align 4
  call void @_ZN6icu_7713UnicodeFilterD2Ev(ptr noundef nonnull align 8 dereferenceable(16) %13) #13
  br label %38

38:                                               ; preds = %34
  %39 = load ptr, ptr %11, align 8
  %40 = load i32, ptr %12, align 4
  %41 = insertvalue { ptr, i32 } poison, ptr %39, 0
  %42 = insertvalue { ptr, i32 } %41, i32 %40, 1
  resume { ptr, i32 } %42
}